target datalayout = "e-m:e-p270:32:32-p271:32:32-p272:64:64-i64:64-i128:128-f80:128-n8:16:32:64-S128"
target triple = "x86_64-unknown-linux-gnu"

%"class.std::shared_ptr" = type { %"class.std::__shared_ptr" }
%"class.std::__shared_ptr" = type { ptr, %"class.std::__shared_count" }
%"class.std::__shared_count" = type { ptr }
%"class.rocksdb::StatisticsImpl" = type { %"class.rocksdb::Statistics.base", %"class.std::shared_ptr", %"class.rocksdb::port::Mutex", %"class.rocksdb::CoreLocalArray" }
%"class.rocksdb::Statistics.base" = type <{ %"class.rocksdb::Customizable", %"struct.std::atomic" }>
%"class.rocksdb::Customizable" = type { %"class.rocksdb::Configurable" }
%"class.rocksdb::Configurable" = type { ptr, %"class.std::vector.16" }
%"class.std::vector.16" = type { %"struct.std::_Vector_base.17" }
%"struct.std::_Vector_base.17" = type { %"struct.std::_Vector_base<rocksdb::Configurable::RegisteredOptions, std::allocator<rocksdb::Configurable::RegisteredOptions>>::_Vector_impl" }
%"struct.std::_Vector_base<rocksdb::Configurable::RegisteredOptions, std::allocator<rocksdb::Configurable::RegisteredOptions>>::_Vector_impl" = type { %"struct.std::_Vector_base<rocksdb::Configurable::RegisteredOptions, std::allocator<rocksdb::Configurable::RegisteredOptions>>::_Vector_impl_data" }
%"struct.std::_Vector_base<rocksdb::Configurable::RegisteredOptions, std::allocator<rocksdb::Configurable::RegisteredOptions>>::_Vector_impl_data" = type { ptr, ptr, ptr }
%"struct.std::atomic" = type { i8 }
%"class.rocksdb::port::Mutex" = type { %union.pthread_mutex_t }
%union.pthread_mutex_t = type { %struct.__pthread_mutex_s }
%struct.__pthread_mutex_s = type { i32, i32, i32, i32, i32, i16, i16, %struct.__pthread_internal_list }
%struct.__pthread_internal_list = type { ptr, ptr }
%"class.rocksdb::CoreLocalArray" = type <{ %"class.std::unique_ptr.21", i32, [4 x i8] }>
%"class.std::unique_ptr.21" = type { %"struct.std::__uniq_ptr_data.22" }
%"struct.std::__uniq_ptr_data.22" = type { %"class.std::__uniq_ptr_impl.23" }
%"class.std::__uniq_ptr_impl.23" = type { %"class.std::tuple.24" }
%"class.std::tuple.24" = type { %"struct.std::_Tuple_impl.25" }
%"struct.std::_Tuple_impl.25" = type { %"struct.std::_Head_base.28" }
%"struct.std::_Head_base.28" = type { ptr }
%"struct.rocksdb::StatisticsImpl::StatisticsData" = type { [216 x %"struct.std::atomic.51"], [61 x %"class.rocksdb::HistogramImpl"], [24 x i8] }
%"struct.std::atomic.51" = type { %"struct.std::__atomic_base" }
%"struct.std::__atomic_base" = type { i64 }
%"class.rocksdb::HistogramImpl" = type { %"class.rocksdb::Histogram", %"struct.rocksdb::HistogramStat", %"class.std::mutex" }
%"class.rocksdb::Histogram" = type { ptr }
%"struct.rocksdb::HistogramStat" = type { %"struct.std::atomic.51", %"struct.std::atomic.51", %"struct.std::atomic.51", %"struct.std::atomic.51", %"struct.std::atomic.51", [109 x %"struct.std::atomic.51"], i64 }
%"class.std::mutex" = type { %"class.std::__mutex_base" }
%"class.std::__mutex_base" = type { %union.pthread_mutex_t }

; Function Attrs: mustprogress nounwind uwtable
define linkonce_odr noundef nonnull align 8 dereferenceable(8) ptr @_ZNSt10_Head_baseILm0EPN7rocksdb14StatisticsImpl14StatisticsDataELb0EE7_M_headERKS4_(ptr noundef nonnull align 8 dereferenceable(8) %__b) #2 comdat align 2 {
entry:
  %__b.addr = alloca ptr, align 8
  store ptr %__b, ptr %__b.addr, align 8
  %0 = load ptr, ptr %__b.addr, align 8
  %_M_head_impl = getelementptr inbounds %"struct.std::_Head_base.28", ptr %0, i32 0, i32 0
  ret ptr %_M_head_impl
}

; Function Attrs: mustprogress nounwind uwtable
define linkonce_odr noundef nonnull align 8 dereferenceable(8) ptr @_ZNSt11_Tuple_implILm0EJPN7rocksdb14StatisticsImpl14StatisticsDataESt14default_deleteIA_S2_EEE7_M_headERKS7_(ptr noundef nonnull align 8 dereferenceable(8) %__t) #2 comdat align 2 {
entry:
  %__t.addr = alloca ptr, align 8
  store ptr %__t, ptr %__t.addr, align 8
  %0 = load ptr, ptr %__t.addr, align 8
  %call = call noundef nonnull align 8 dereferenceable(8) ptr @_ZNSt10_Head_baseILm0EPN7rocksdb14StatisticsImpl14StatisticsDataELb0EE7_M_headERKS4_(ptr noundef nonnull align 8 dereferenceable(8) %0) #3
  ret ptr %call
}

; Function Attrs: mustprogress nounwind uwtable
define linkonce_odr noundef nonnull align 8 dereferenceable(8) ptr @_ZSt12__get_helperILm0EPN7rocksdb14StatisticsImpl14StatisticsDataEJSt14default_deleteIA_S2_EEERKT0_RKSt11_Tuple_implIXT_EJS7_DpT1_EE(ptr noundef nonnull align 8 dereferenceable(8) %__t) #2 comdat {
entry:
  %__t.addr = alloca ptr, align 8
  store ptr %__t, ptr %__t.addr, align 8
  %0 = load ptr, ptr %__t.addr, align 8
  %call = call noundef nonnull align 8 dereferenceable(8) ptr @_ZNSt11_Tuple_implILm0EJPN7rocksdb14StatisticsImpl14StatisticsDataESt14default_deleteIA_S2_EEE7_M_headERKS7_(ptr noundef nonnull align 8 dereferenceable(8) %0) #3
  ret ptr %call
}

; Function Attrs: mustprogress nounwind uwtable
define linkonce_odr noundef nonnull align 8 dereferenceable(8) ptr @_ZSt3getILm0EJPN7rocksdb14StatisticsImpl14StatisticsDataESt14default_deleteIA_S2_EEERKNSt13tuple_elementIXT_ESt5tupleIJDpT0_EEE4typeERKSB_(ptr noundef nonnull align 8 dereferenceable(8) %__t) #2 comdat {
entry:
  %__t.addr = alloca ptr, align 8
  store ptr %__t, ptr %__t.addr, align 8
  %0 = load ptr, ptr %__t.addr, align 8
  %call = call noundef nonnull align 8 dereferenceable(8) ptr @_ZSt12__get_helperILm0EPN7rocksdb14StatisticsImpl14StatisticsDataEJSt14default_deleteIA_S2_EEERKT0_RKSt11_Tuple_implIXT_EJS7_DpT1_EE(ptr noundef nonnull align 8 dereferenceable(8) %0) #3
  ret ptr %call
}

; Function Attrs: mustprogress nounwind uwtable
define linkonce_odr noundef ptr @_ZNKSt15__uniq_ptr_implIN7rocksdb14StatisticsImpl14StatisticsDataESt14default_deleteIA_S2_EE6_M_ptrEv(ptr noundef nonnull align 8 dereferenceable(8) %this) #2 comdat align 2 {
entry:
  %this.addr = alloca ptr, align 8
  store ptr %this, ptr %this.addr, align 8
  %this1 = load ptr, ptr %this.addr, align 8
  %_M_t = getelementptr inbounds %"class.std::__uniq_ptr_impl.23", ptr %this1, i32 0, i32 0
  %call = call noundef nonnull align 8 dereferenceable(8) ptr @_ZSt3getILm0EJPN7rocksdb14StatisticsImpl14StatisticsDataESt14default_deleteIA_S2_EEERKNSt13tuple_elementIXT_ESt5tupleIJDpT0_EEE4typeERKSB_(ptr noundef nonnull align 8 dereferenceable(8) %_M_t) #3
  %0 = load ptr, ptr %call, align 8
  ret ptr %0
}

; Function Attrs: mustprogress nounwind uwtable
define linkonce_odr noundef ptr @_ZNKSt10unique_ptrIA_N7rocksdb14StatisticsImpl14StatisticsDataESt14default_deleteIS3_EE3getEv(ptr noundef nonnull align 8 dereferenceable(8) %this) #2 comdat align 2 {
entry:
  %this.addr = alloca ptr, align 8
  store ptr %this, ptr %this.addr, align 8
  %this1 = load ptr, ptr %this.addr, align 8
  %_M_t = getelementptr inbounds %"class.std::unique_ptr.21", ptr %this1, i32 0, i32 0
  %call = call noundef ptr @_ZNKSt15__uniq_ptr_implIN7rocksdb14StatisticsImpl14StatisticsDataESt14default_deleteIA_S2_EE6_M_ptrEv(ptr noundef nonnull align 8 dereferenceable(8) %_M_t) #3
  ret ptr %call
}

; Function Attrs: mustprogress nounwind uwtable
define linkonce_odr noundef i32 @_ZStanSt12memory_orderSt23__memory_order_modifier(i32 noundef %__m, i32 noundef %__mod) #2 comdat {
entry:
  %__m.addr = alloca i32, align 4
  %__mod.addr = alloca i32, align 4
  store i32 %__m, ptr %__m.addr, align 4
  store i32 %__mod, ptr %__mod.addr, align 4
  %0 = load i32, ptr %__m.addr, align 4
  %1 = load i32, ptr %__mod.addr, align 4
  %and = and i32 %0, %1
  ret i32 %and
}

; Function Attrs: mustprogress nounwind uwtable
define linkonce_odr noundef nonnull align 64 dereferenceable(60800) ptr @_ZNKSt10unique_ptrIA_N7rocksdb14StatisticsImpl14StatisticsDataESt14default_deleteIS3_EEixEm(ptr noundef nonnull align 8 dereferenceable(8) %this, i64 noundef %__i) #2 comdat align 2 {
entry:
  %this.addr = alloca ptr, align 8
  %__i.addr = alloca i64, align 8
  store ptr %this, ptr %this.addr, align 8
  store i64 %__i, ptr %__i.addr, align 8
  %this1 = load ptr, ptr %this.addr, align 8
  br label %do.body

do.body:                                          ; preds = %entry
  br label %do.end

do.end:                                           ; preds = %do.body
  %call = call noundef ptr @_ZNKSt10unique_ptrIA_N7rocksdb14StatisticsImpl14StatisticsDataESt14default_deleteIS3_EE3getEv(ptr noundef nonnull align 8 dereferenceable(8) %this1) #3
  %0 = load i64, ptr %__i.addr, align 8
  %arrayidx = getelementptr inbounds %"struct.rocksdb::StatisticsImpl::StatisticsData", ptr %call, i64 %0
  ret ptr %arrayidx
}

; Function Attrs: mustprogress nounwind uwtable
define linkonce_odr noundef i64 @_ZNSt13__atomic_baseImEaSEm(ptr noundef nonnull align 8 dereferenceable(8) %this, i64 noundef %__i) #2 comdat align 2 {
entry:
  %this.addr.i = alloca ptr, align 8
  %__i.addr.i = alloca i64, align 8
  %__m.addr.i = alloca i32, align 4
  %__b.i = alloca i32, align 4
  %.atomictmp.i = alloca i64, align 8
  %this.addr = alloca ptr, align 8
  %__i.addr = alloca i64, align 8
  store ptr %this, ptr %this.addr, align 8
  store i64 %__i, ptr %__i.addr, align 8
  %this1 = load ptr, ptr %this.addr, align 8
  %0 = load i64, ptr %__i.addr, align 8
  store ptr %this1, ptr %this.addr.i, align 8
  store i64 %0, ptr %__i.addr.i, align 8
  store i32 5, ptr %__m.addr.i, align 4
  %this1.i = load ptr, ptr %this.addr.i, align 8
  %1 = load i32, ptr %__m.addr.i, align 4
  %call.i = call noundef i32 @_ZStanSt12memory_orderSt23__memory_order_modifier(i32 noundef %1, i32 noundef 65535)
  store i32 %call.i, ptr %__b.i, align 4
  %2 = load i32, ptr %__m.addr.i, align 4
  %3 = load i64, ptr %__i.addr.i, align 8
  store i64 %3, ptr %.atomictmp.i, align 8
  switch i32 %2, label %monotonic.i [
    i32 3, label %release.i
    i32 5, label %seqcst.i
  ]

monotonic.i:                                      ; preds = %entry
  %4 = load i64, ptr %.atomictmp.i, align 8
  store atomic i64 %4, ptr %this1.i monotonic, align 8
  br label %_ZNSt13__atomic_baseImE5storeEmSt12memory_order.exit

release.i:                                        ; preds = %entry
  %5 = load i64, ptr %.atomictmp.i, align 8
  store atomic i64 %5, ptr %this1.i release, align 8
  br label %_ZNSt13__atomic_baseImE5storeEmSt12memory_order.exit

seqcst.i:                                         ; preds = %entry
  %6 = load i64, ptr %.atomictmp.i, align 8
  store atomic i64 %6, ptr %this1.i seq_cst, align 8
  br label %_ZNSt13__atomic_baseImE5storeEmSt12memory_order.exit

_ZNSt13__atomic_baseImE5storeEmSt12memory_order.exit: ; preds = %seqcst.i, %release.i, %monotonic.i
  %7 = load i64, ptr %__i.addr, align 8
  ret i64 %7
}

; Function Attrs: mustprogress uwtable
define linkonce_odr noundef ptr @_ZNK7rocksdb14CoreLocalArrayINS_14StatisticsImpl14StatisticsDataEE12AccessAtCoreEm(ptr noundef nonnull align 8 dereferenceable(12) %this, i64 noundef %core_idx) #1 comdat align 2 {
entry:
  %this.addr = alloca ptr, align 8
  %core_idx.addr = alloca i64, align 8
  store ptr %this, ptr %this.addr, align 8
  store i64 %core_idx, ptr %core_idx.addr, align 8
  %this1 = load ptr, ptr %this.addr, align 8
  %data_ = getelementptr inbounds %"class.rocksdb::CoreLocalArray", ptr %this1, i32 0, i32 0
  %0 = load i64, ptr %core_idx.addr, align 8
  %call = call noundef nonnull align 64 dereferenceable(60800) ptr @_ZNKSt10unique_ptrIA_N7rocksdb14StatisticsImpl14StatisticsDataESt14default_deleteIS3_EEixEm(ptr noundef nonnull align 8 dereferenceable(8) %data_, i64 noundef %0)
  ret ptr %call
}

; Function Attrs: mustprogress nounwind uwtable
define linkonce_odr noundef i64 @_ZNK7rocksdb14CoreLocalArrayINS_14StatisticsImpl14StatisticsDataEE4SizeEv(ptr noundef nonnull align 8 dereferenceable(12) %this) #2 comdat align 2 {
entry:
  %this.addr = alloca ptr, align 8
  store ptr %this, ptr %this.addr, align 8
  %this1 = load ptr, ptr %this.addr, align 8
  %size_shift_ = getelementptr inbounds %"class.rocksdb::CoreLocalArray", ptr %this1, i32 0, i32 1
  %0 = load i32, ptr %size_shift_, align 8
  %sh_prom = zext i32 %0 to i64
  %shl = shl i64 1, %sh_prom
  ret i64 %shl
}

; Function Attrs: mustprogress uwtable
define void @_ZN7rocksdb14StatisticsImpl20setTickerCountLockedEjm(ptr noundef nonnull align 8 dereferenceable(112) %this, i32 noundef %tickerType, i64 noundef %count) #1 align 2 {
entry:
  %this.addr = alloca ptr, align 8
  %tickerType.addr = alloca i32, align 4
  %count.addr = alloca i64, align 8
  %core_idx = alloca i64, align 8
  store ptr %this, ptr %this.addr, align 8
  store i32 %tickerType, ptr %tickerType.addr, align 4
  store i64 %count, ptr %count.addr, align 8
  %this1 = load ptr, ptr %this.addr, align 8
  store i64 0, ptr %core_idx, align 8
  br label %for.cond

for.cond:                                         ; preds = %for.inc, %entry
  %0 = load i64, ptr %core_idx, align 8
  %per_core_stats_ = getelementptr inbounds %"class.rocksdb::StatisticsImpl", ptr %this1, i32 0, i32 3
  %call = call noundef i64 @_ZNK7rocksdb14CoreLocalArrayINS_14StatisticsImpl14StatisticsDataEE4SizeEv(ptr noundef nonnull align 8 dereferenceable(12) %per_core_stats_)
  %cmp = icmp ult i64 %0, %call
  br i1 %cmp, label %for.body, label %for.end

for.body:                                         ; preds = %for.cond
  %1 = load i64, ptr %core_idx, align 8
  %cmp2 = icmp eq i64 %1, 0
  br i1 %cmp2, label %if.then, label %if.else

if.then:                                          ; preds = %for.body
  %2 = load i64, ptr %count.addr, align 8
  %per_core_stats_3 = getelementptr inbounds %"class.rocksdb::StatisticsImpl", ptr %this1, i32 0, i32 3
  %3 = load i64, ptr %core_idx, align 8
  %call4 = call noundef ptr @_ZNK7rocksdb14CoreLocalArrayINS_14StatisticsImpl14StatisticsDataEE12AccessAtCoreEm(ptr noundef nonnull align 8 dereferenceable(12) %per_core_stats_3, i64 noundef %3)
  %tickers_ = getelementptr inbounds %"struct.rocksdb::StatisticsImpl::StatisticsData", ptr %call4, i32 0, i32 0
  %4 = load i32, ptr %tickerType.addr, align 4
  %idxprom = zext i32 %4 to i64
  %arrayidx = getelementptr inbounds [216 x %"struct.std::atomic.51"], ptr %tickers_, i64 0, i64 %idxprom
  %call5 = call noundef i64 @_ZNSt13__atomic_baseImEaSEm(ptr noundef nonnull align 8 dereferenceable(8) %arrayidx, i64 noundef %2) #3
  br label %if.end

if.else:                                          ; preds = %for.body
  %per_core_stats_6 = getelementptr inbounds %"class.rocksdb::StatisticsImpl", ptr %this1, i32 0, i32 3
  %5 = load i64, ptr %core_idx, align 8
  %call7 = call noundef ptr @_ZNK7rocksdb14CoreLocalArrayINS_14StatisticsImpl14StatisticsDataEE12AccessAtCoreEm(ptr noundef nonnull align 8 dereferenceable(12) %per_core_stats_6, i64 noundef %5)
  %tickers_8 = getelementptr inbounds %"struct.rocksdb::StatisticsImpl::StatisticsData", ptr %call7, i32 0, i32 0
  %6 = load i32, ptr %tickerType.addr, align 4
  %idxprom9 = zext i32 %6 to i64
  %arrayidx10 = getelementptr inbounds [216 x %"struct.std::atomic.51"], ptr %tickers_8, i64 0, i64 %idxprom9
  %call11 = call noundef i64 @_ZNSt13__atomic_baseImEaSEm(ptr noundef nonnull align 8 dereferenceable(8) %arrayidx10, i64 noundef 0) #3
  br label %if.end

if.end:                                           ; preds = %if.else, %if.then
  br label %for.inc

for.inc:                                          ; preds = %if.end
  %7 = load i64, ptr %core_idx, align 8
  %inc = add i64 %7, 1
  store i64 %inc, ptr %core_idx, align 8
  br label %for.cond, !llvm.loop !8

for.end:                                          ; preds = %for.cond
  ret void
}