; Function Attrs: mustprogress nofree norecurse nounwind memory(readwrite, inaccessiblemem: none) uwtable
define void @_ZN7rocksdb14StatisticsImpl20setTickerCountLockedEjm(ptr nocapture noundef nonnull readonly align 8 dereferenceable(112) %this, i32 noundef %tickerType, i64 noundef %count) local_unnamed_addr #7 align 2 {
entry:
  %per_core_stats_ = getelementptr inbounds i8, ptr %this, i64 96
  %size_shift_.i = getelementptr inbounds i8, ptr %this, i64 104
  %idxprom9 = zext i32 %tickerType to i64
  br label %for.body

for.body:                                         ; preds = %entry, %for.body
  %core_idx.07 = phi i64 [ 0, %entry ], [ %inc, %for.body ]
  %cmp2 = icmp eq i64 %core_idx.07, 0
  %0 = load ptr, ptr %per_core_stats_, align 8
  %arrayidx.i.i = getelementptr inbounds %"struct.rocksdb::StatisticsImpl::StatisticsData", ptr %0, i64 %core_idx.07
  %count.sink = select i1 %cmp2, i64 %count, i64 0
  %arrayidx = getelementptr inbounds [216 x %"struct.std::atomic.51"], ptr %arrayidx.i.i, i64 0, i64 %idxprom9
  store atomic i64 %count.sink, ptr %arrayidx seq_cst, align 8
  %inc = add nuw i64 %core_idx.07, 1
  %1 = load i32, ptr %size_shift_.i, align 8
  %sh_prom.i = zext nneg i32 %1 to i64
  %core_idx.0.highbits = lshr i64 %inc, %sh_prom.i
  %cmp = icmp eq i64 %core_idx.0.highbits, 0
  br i1 %cmp, label %for.body, label %for.end, !llvm.loop !32

for.end:                                          ; preds = %for.body
  ret void
}